target datalayout = "e-m:e-p270:32:32-p271:32:32-p272:64:64-i64:64-i128:128-f80:128-n8:16:32:64-S128"
target triple = "x86_64-pc-linux-gnu"

; Function Attrs: nounwind uwtable
define dso_local zeroext i1 @str_eq(ptr noundef %0, ptr noundef %1) #0 {
  %3 = alloca ptr, align 8
  %4 = alloca ptr, align 8
  store ptr %0, ptr %3, align 8
  store ptr %1, ptr %4, align 8
  %5 = load ptr, ptr %3, align 8
  %6 = load ptr, ptr %4, align 8
  %7 = icmp eq ptr %5, %6
  br i1 %7, label %13, label %8

8:                                                ; preds = %2
  %9 = load ptr, ptr %3, align 8
  %10 = load ptr, ptr %4, align 8
  %11 = call i32 @strcmp(ptr noundef %9, ptr noundef %10) #7
  %12 = icmp eq i32 %11, 0
  br label %13

13:                                               ; preds = %8, %2
  %14 = phi i1 [ true, %2 ], [ %12, %8 ]
  ret i1 %14
}