; Function Attrs: mustprogress nofree nounwind willreturn memory(argmem: read) uwtable
define dso_local zeroext i1 @str_eq(ptr noundef readonly %0, ptr noundef readonly %1) local_unnamed_addr #5 {
  %3 = icmp eq ptr %0, %1
  br i1 %3, label %7, label %4

4:                                                ; preds = %2
  %5 = tail call i32 @strcmp(ptr noundef nonnull dereferenceable(1) %0, ptr noundef nonnull dereferenceable(1) %1) #20
  %6 = icmp eq i32 %5, 0
  br label %7

7:                                                ; preds = %4, %2
  %8 = phi i1 [ true, %2 ], [ %6, %4 ]
  ret i1 %8
}